target datalayout = "e-m:e-p270:32:32-p271:32:32-p272:64:64-i64:64-i128:128-f80:128-n8:16:32:64-S128"
target triple = "x86_64-unknown-linux-gnu"

%"class.dd::solver" = type { ptr, ptr, ptr, %"class.dd::solver::stats", %"struct.dd::solver::config", %"class.std::function", %class.ptr_vector, %class.ptr_vector, %class.ptr_vector, %class.vector.0, %class.ptr_vector, ptr, i8, i32, %class.svector, %class.svector }
%"class.dd::solver::stats" = type <{ i32, [4 x i8], double, i32, i32, i32, [4 x i8] }>
%"struct.dd::solver::config" = type { i32, i32, i32, i32, i32, i32, i8, i32, i32, i32, i32 }
%"class.std::function" = type { %"class.std::_Function_base", ptr }
%"class.std::_Function_base" = type { %"union.std::_Any_data", ptr }
%"union.std::_Any_data" = type { %"union.std::_Nocopy_types" }
%"union.std::_Nocopy_types" = type { { i64, i64 } }
%class.vector.0 = type { ptr }
%class.ptr_vector = type { %class.vector }
%class.vector = type { ptr }
%class.svector = type { %class.vector.1 }
%class.vector.1 = type { ptr }
%"class.dd::solver::equation" = type { i32, i32, %"class.dd::pdd", ptr }
%"class.dd::pdd" = type { i32, ptr }

@.str.2 = private unnamed_addr constant [2 x i8] c"\0A\00", align 1
@.str.6 = private unnamed_addr constant [2 x i8] c" \00", align 1
@.str.7 = private unnamed_addr constant [115 x i8] c"generated/home/dtcxzyw/WorkSpace/Projects/compilers/llvm-opt-benchmark/bench/z3/z3/src/math/grobner/pdd_solver.cpp\00", align 1
@.str.8 = private unnamed_addr constant [36 x i8] c"Failed to verify: set[k] != set[l]\0A\00", align 1

; Function Attrs: mustprogress nounwind uwtable
define linkonce_odr hidden noundef i32 @_ZNK2dd6solver8equation3idxEv(ptr noundef nonnull align 8 dereferenceable(32) %this) #5 comdat align 2 {
entry:
  %this.addr = alloca ptr, align 8
  store ptr %this, ptr %this.addr, align 8
  %this1 = load ptr, ptr %this.addr, align 8
  %m_idx = getelementptr inbounds %"class.dd::solver::equation", ptr %this1, i32 0, i32 1
  %0 = load i32, ptr %m_idx, align 4
  ret i32 %0
}

; Function Attrs: mustprogress nounwind uwtable
define linkonce_odr hidden noundef ptr @_ZN6vectorIPN2dd6solver8equationELb0EjE3endEv(ptr noundef nonnull align 8 dereferenceable(8) %this) #5 comdat align 2 {
entry:
  %this.addr = alloca ptr, align 8
  store ptr %this, ptr %this.addr, align 8
  %this1 = load ptr, ptr %this.addr, align 8
  %m_data = getelementptr inbounds %class.vector, ptr %this1, i32 0, i32 0
  %0 = load ptr, ptr %m_data, align 8
  %call = call noundef i32 @_ZNK6vectorIPN2dd6solver8equationELb0EjE4sizeEv(ptr noundef nonnull align 8 dereferenceable(8) %this1)
  %idx.ext = zext i32 %call to i64
  %add.ptr = getelementptr inbounds ptr, ptr %0, i64 %idx.ext
  ret ptr %add.ptr
}

; Function Attrs: mustprogress nounwind uwtable
define linkonce_odr hidden noundef ptr @_ZN6vectorIPN2dd6solver8equationELb0EjE5beginEv(ptr noundef nonnull align 8 dereferenceable(8) %this) #5 comdat align 2 {
entry:
  %this.addr = alloca ptr, align 8
  store ptr %this, ptr %this.addr, align 8
  %this1 = load ptr, ptr %this.addr, align 8
  %m_data = getelementptr inbounds %class.vector, ptr %this1, i32 0, i32 0
  %0 = load ptr, ptr %m_data, align 8
  ret ptr %0
}

; Function Attrs: mustprogress nounwind uwtable
define linkonce_odr hidden noundef nonnull align 8 dereferenceable(8) ptr @_ZN6vectorIPN2dd6solver8equationELb0EjEixEj(ptr noundef nonnull align 8 dereferenceable(8) %this, i32 noundef %idx) #5 comdat align 2 {
entry:
  %this.addr = alloca ptr, align 8
  %idx.addr = alloca i32, align 4
  store ptr %this, ptr %this.addr, align 8
  store i32 %idx, ptr %idx.addr, align 4
  %this1 = load ptr, ptr %this.addr, align 8
  %m_data = getelementptr inbounds %class.vector, ptr %this1, i32 0, i32 0
  %0 = load ptr, ptr %m_data, align 8
  %1 = load i32, ptr %idx.addr, align 4
  %idxprom = zext i32 %1 to i64
  %arrayidx = getelementptr inbounds ptr, ptr %0, i64 %idxprom
  ret ptr %arrayidx
}

; Function Attrs: mustprogress nounwind uwtable
define linkonce_odr hidden noundef i32 @_ZNK6vectorIPN2dd6solver8equationELb0EjE4sizeEv(ptr noundef nonnull align 8 dereferenceable(8) %this) #5 comdat align 2 {
entry:
  %retval = alloca i32, align 4
  %this.addr = alloca ptr, align 8
  store ptr %this, ptr %this.addr, align 8
  %this1 = load ptr, ptr %this.addr, align 8
  %m_data = getelementptr inbounds %class.vector, ptr %this1, i32 0, i32 0
  %0 = load ptr, ptr %m_data, align 8
  %cmp = icmp eq ptr %0, null
  br i1 %cmp, label %if.then, label %if.end

if.then:                                          ; preds = %entry
  store i32 0, ptr %retval, align 4
  br label %return

if.end:                                           ; preds = %entry
  %m_data2 = getelementptr inbounds %class.vector, ptr %this1, i32 0, i32 0
  %1 = load ptr, ptr %m_data2, align 8
  %arrayidx = getelementptr inbounds i32, ptr %1, i64 -1
  %2 = load i32, ptr %arrayidx, align 4
  store i32 %2, ptr %retval, align 4
  br label %return

return:                                           ; preds = %if.end, %if.then
  %3 = load i32, ptr %retval, align 4
  ret i32 %3
}

; Function Attrs: mustprogress uwtable
define hidden void @_ZN2dd6solver11well_formedEv(ptr noundef nonnull align 8 dereferenceable(208) %this) #4 align 2 {
entry:
  %this.addr = alloca ptr, align 8
  %set = alloca ptr, align 8
  %k = alloca i32, align 4
  %l = alloca i32, align 4
  %__range3 = alloca ptr, align 8
  %__begin3 = alloca ptr, align 8
  %__end3 = alloca ptr, align 8
  %s = alloca ptr, align 8
  store ptr %this, ptr %this.addr, align 8
  %this1 = load ptr, ptr %this.addr, align 8
  %m_to_simplify = getelementptr inbounds %"class.dd::solver", ptr %this1, i32 0, i32 8
  store ptr %m_to_simplify, ptr %set, align 8
  store i32 0, ptr %k, align 4
  br label %for.cond

for.cond:                                         ; preds = %for.inc37, %entry
  %0 = load i32, ptr %k, align 4
  %1 = load ptr, ptr %set, align 8
  %call = call noundef i32 @_ZNK6vectorIPN2dd6solver8equationELb0EjE4sizeEv(ptr noundef nonnull align 8 dereferenceable(8) %1)
  %cmp = icmp ult i32 %0, %call
  br i1 %cmp, label %for.body, label %for.end39

for.body:                                         ; preds = %for.cond
  %2 = load i32, ptr %k, align 4
  %add = add i32 %2, 1
  store i32 %add, ptr %l, align 4
  br label %for.cond2

for.cond2:                                        ; preds = %for.inc35, %for.body
  %3 = load i32, ptr %l, align 4
  %4 = load ptr, ptr %set, align 8
  %call3 = call noundef i32 @_ZNK6vectorIPN2dd6solver8equationELb0EjE4sizeEv(ptr noundef nonnull align 8 dereferenceable(8) %4)
  %cmp4 = icmp ult i32 %3, %call3
  br i1 %cmp4, label %for.body5, label %for.end36

for.body5:                                        ; preds = %for.cond2
  %5 = load ptr, ptr %set, align 8
  %6 = load i32, ptr %l, align 4
  %call6 = call noundef nonnull align 8 dereferenceable(8) ptr @_ZN6vectorIPN2dd6solver8equationELb0EjEixEj(ptr noundef nonnull align 8 dereferenceable(8) %5, i32 noundef %6)
  %7 = load ptr, ptr %call6, align 8
  %tobool = icmp ne ptr %7, null
  br i1 %tobool, label %lor.lhs.false, label %if.then

lor.lhs.false:                                    ; preds = %for.body5
  %8 = load ptr, ptr %set, align 8
  %9 = load i32, ptr %k, align 4
  %call7 = call noundef nonnull align 8 dereferenceable(8) ptr @_ZN6vectorIPN2dd6solver8equationELb0EjEixEj(ptr noundef nonnull align 8 dereferenceable(8) %8, i32 noundef %9)
  %10 = load ptr, ptr %call7, align 8
  %tobool8 = icmp ne ptr %10, null
  br i1 %tobool8, label %lor.lhs.false9, label %if.then

lor.lhs.false9:                                   ; preds = %lor.lhs.false
  %11 = load ptr, ptr %set, align 8
  %12 = load i32, ptr %k, align 4
  %call10 = call noundef nonnull align 8 dereferenceable(8) ptr @_ZN6vectorIPN2dd6solver8equationELb0EjEixEj(ptr noundef nonnull align 8 dereferenceable(8) %11, i32 noundef %12)
  %13 = load ptr, ptr %call10, align 8
  %14 = load ptr, ptr %set, align 8
  %15 = load i32, ptr %l, align 4
  %call11 = call noundef nonnull align 8 dereferenceable(8) ptr @_ZN6vectorIPN2dd6solver8equationELb0EjEixEj(ptr noundef nonnull align 8 dereferenceable(8) %14, i32 noundef %15)
  %16 = load ptr, ptr %call11, align 8
  %cmp12 = icmp ne ptr %13, %16
  br i1 %cmp12, label %if.then, label %if.end

if.then:                                          ; preds = %lor.lhs.false9, %lor.lhs.false, %for.body5
  br label %for.inc35

if.end:                                           ; preds = %lor.lhs.false9
  %call13 = call noundef nonnull align 8 dereferenceable(8) ptr @_Z14verbose_streamv()
  %17 = load i32, ptr %k, align 4
  %call14 = call noundef nonnull align 8 dereferenceable(8) ptr @_ZNSolsEj(ptr noundef nonnull align 8 dereferenceable(8) %call13, i32 noundef %17)
  %call15 = call noundef nonnull align 8 dereferenceable(8) ptr @_ZStlsISt11char_traitsIcEERSt13basic_ostreamIcT_ES5_PKc(ptr noundef nonnull align 8 dereferenceable(8) %call14, ptr noundef @.str.6)
  %18 = load i32, ptr %l, align 4
  %call16 = call noundef nonnull align 8 dereferenceable(8) ptr @_ZNSolsEj(ptr noundef nonnull align 8 dereferenceable(8) %call15, i32 noundef %18)
  %call17 = call noundef nonnull align 8 dereferenceable(8) ptr @_ZStlsISt11char_traitsIcEERSt13basic_ostreamIcT_ES5_PKc(ptr noundef nonnull align 8 dereferenceable(8) %call16, ptr noundef @.str.6)
  %19 = load ptr, ptr %set, align 8
  %20 = load i32, ptr %k, align 4
  %call18 = call noundef nonnull align 8 dereferenceable(8) ptr @_ZN6vectorIPN2dd6solver8equationELb0EjEixEj(ptr noundef nonnull align 8 dereferenceable(8) %19, i32 noundef %20)
  %21 = load ptr, ptr %call18, align 8
  %call19 = call noundef nonnull align 8 dereferenceable(8) ptr @_ZNSolsEPKv(ptr noundef nonnull align 8 dereferenceable(8) %call17, ptr noundef %21)
  %call20 = call noundef nonnull align 8 dereferenceable(8) ptr @_ZStlsISt11char_traitsIcEERSt13basic_ostreamIcT_ES5_PKc(ptr noundef nonnull align 8 dereferenceable(8) %call19, ptr noundef @.str.2)
  %22 = load ptr, ptr %set, align 8
  store ptr %22, ptr %__range3, align 8
  %23 = load ptr, ptr %__range3, align 8
  %call21 = call noundef ptr @_ZN6vectorIPN2dd6solver8equationELb0EjE5beginEv(ptr noundef nonnull align 8 dereferenceable(8) %23)
  store ptr %call21, ptr %__begin3, align 8
  %24 = load ptr, ptr %__range3, align 8
  %call22 = call noundef ptr @_ZN6vectorIPN2dd6solver8equationELb0EjE3endEv(ptr noundef nonnull align 8 dereferenceable(8) %24)
  store ptr %call22, ptr %__end3, align 8
  br label %for.cond23

for.cond23:                                       ; preds = %for.inc, %if.end
  %25 = load ptr, ptr %__begin3, align 8
  %26 = load ptr, ptr %__end3, align 8
  %cmp24 = icmp ne ptr %25, %26
  br i1 %cmp24, label %for.body25, label %for.end

for.body25:                                       ; preds = %for.cond23
  %27 = load ptr, ptr %__begin3, align 8
  %28 = load ptr, ptr %27, align 8
  store ptr %28, ptr %s, align 8
  %call26 = call noundef nonnull align 8 dereferenceable(8) ptr @_Z14verbose_streamv()
  %29 = load ptr, ptr %s, align 8
  %call27 = call noundef i32 @_ZNK2dd6solver8equation3idxEv(ptr noundef nonnull align 8 dereferenceable(32) %29)
  %call28 = call noundef nonnull align 8 dereferenceable(8) ptr @_ZNSolsEj(ptr noundef nonnull align 8 dereferenceable(8) %call26, i32 noundef %call27)
  %call29 = call noundef nonnull align 8 dereferenceable(8) ptr @_ZStlsISt11char_traitsIcEERSt13basic_ostreamIcT_ES5_PKc(ptr noundef nonnull align 8 dereferenceable(8) %call28, ptr noundef @.str.2)
  br label %for.inc

for.inc:                                          ; preds = %for.body25
  %30 = load ptr, ptr %__begin3, align 8
  %incdec.ptr = getelementptr inbounds ptr, ptr %30, i32 1
  store ptr %incdec.ptr, ptr %__begin3, align 8
  br label %for.cond23

for.end:                                          ; preds = %for.cond23
  %31 = load ptr, ptr %set, align 8
  %32 = load i32, ptr %k, align 4
  %call30 = call noundef nonnull align 8 dereferenceable(8) ptr @_ZN6vectorIPN2dd6solver8equationELb0EjEixEj(ptr noundef nonnull align 8 dereferenceable(8) %31, i32 noundef %32)
  %33 = load ptr, ptr %call30, align 8
  %34 = load ptr, ptr %set, align 8
  %35 = load i32, ptr %l, align 4
  %call31 = call noundef nonnull align 8 dereferenceable(8) ptr @_ZN6vectorIPN2dd6solver8equationELb0EjEixEj(ptr noundef nonnull align 8 dereferenceable(8) %34, i32 noundef %35)
  %36 = load ptr, ptr %call31, align 8
  %cmp32 = icmp ne ptr %33, %36
  br i1 %cmp32, label %if.end34, label %if.then33

if.then33:                                        ; preds = %for.end
  call void @_Z26notify_assertion_violationPKciS0_(ptr noundef @.str.7, i32 noundef 174, ptr noundef @.str.8)
  call void @exit(i32 noundef 114) #17
  unreachable

if.end34:                                         ; preds = %for.end
  br label %for.inc35

for.inc35:                                        ; preds = %if.end34, %if.then
  %37 = load i32, ptr %l, align 4
  %inc = add i32 %37, 1
  store i32 %inc, ptr %l, align 4
  br label %for.cond2, !llvm.loop !8

for.end36:                                        ; preds = %for.cond2
  br label %for.inc37

for.inc37:                                        ; preds = %for.end36
  %38 = load i32, ptr %k, align 4
  %inc38 = add i32 %38, 1
  store i32 %inc38, ptr %k, align 4
  br label %for.cond, !llvm.loop !9

for.end39:                                        ; preds = %for.cond
  ret void
}