; Function Attrs: mustprogress uwtable
define hidden void @_ZN2dd6solver11well_formedEv(ptr nocapture noundef nonnull readonly align 8 dereferenceable(208) %this) local_unnamed_addr #5 align 2 {
entry:
  %m_to_simplify = getelementptr inbounds i8, ptr %this, i64 152
  %.pre = load ptr, ptr %m_to_simplify, align 8
  br label %for.cond

for.cond.loopexit:                                ; preds = %_ZNK6vectorIPN2dd6solver8equationELb0EjE4sizeEv.exit29
  %indvars.iv.next = add i32 %indvars.iv, 1
  br label %for.cond, !llvm.loop !22

for.cond:                                         ; preds = %for.cond.loopexit, %entry
  %0 = phi ptr [ %5, %for.cond.loopexit ], [ %.pre, %entry ]
  %indvars.iv48 = phi i64 [ %indvars.iv.next49, %for.cond.loopexit ], [ 0, %entry ]
  %indvars.iv = phi i32 [ %indvars.iv.next, %for.cond.loopexit ], [ 1, %entry ]
  %1 = zext i32 %indvars.iv to i64
  %cmp.i = icmp eq ptr %0, null
  br i1 %cmp.i, label %_ZNK6vectorIPN2dd6solver8equationELb0EjE4sizeEv.exit, label %if.end.i

if.end.i:                                         ; preds = %for.cond
  %arrayidx.i = getelementptr inbounds i8, ptr %0, i64 -4
  %2 = load i32, ptr %arrayidx.i, align 4
  br label %_ZNK6vectorIPN2dd6solver8equationELb0EjE4sizeEv.exit

_ZNK6vectorIPN2dd6solver8equationELb0EjE4sizeEv.exit: ; preds = %for.cond, %if.end.i
  %retval.0.i = phi i32 [ %2, %if.end.i ], [ 0, %for.cond ]
  %3 = zext i32 %retval.0.i to i64
  %cmp = icmp ult i64 %indvars.iv48, %3
  br i1 %cmp, label %for.body, label %for.end39

for.body:                                         ; preds = %_ZNK6vectorIPN2dd6solver8equationELb0EjE4sizeEv.exit
  %indvars.iv.next49 = add nuw nsw i64 %indvars.iv48, 1
  %4 = trunc i64 %indvars.iv48 to i32
  br label %for.cond2

for.cond2:                                        ; preds = %for.inc35, %for.body
  %5 = phi ptr [ %21, %for.inc35 ], [ %0, %for.body ]
  %indvars.iv45 = phi i64 [ %indvars.iv.next46, %for.inc35 ], [ %1, %for.body ]
  %cmp.i25 = icmp eq ptr %5, null
  br i1 %cmp.i25, label %_ZNK6vectorIPN2dd6solver8equationELb0EjE4sizeEv.exit29, label %if.end.i26

if.end.i26:                                       ; preds = %for.cond2
  %arrayidx.i27 = getelementptr inbounds i8, ptr %5, i64 -4
  %6 = load i32, ptr %arrayidx.i27, align 4
  br label %_ZNK6vectorIPN2dd6solver8equationELb0EjE4sizeEv.exit29

_ZNK6vectorIPN2dd6solver8equationELb0EjE4sizeEv.exit29: ; preds = %for.cond2, %if.end.i26
  %retval.0.i28 = phi i32 [ %6, %if.end.i26 ], [ 0, %for.cond2 ]
  %7 = zext i32 %retval.0.i28 to i64
  %cmp4 = icmp ult i64 %indvars.iv45, %7
  br i1 %cmp4, label %for.body5, label %for.cond.loopexit

for.body5:                                        ; preds = %_ZNK6vectorIPN2dd6solver8equationELb0EjE4sizeEv.exit29
  %arrayidx.i30 = getelementptr inbounds ptr, ptr %5, i64 %indvars.iv45
  %8 = load ptr, ptr %arrayidx.i30, align 8
  %tobool.not = icmp eq ptr %8, null
  br i1 %tobool.not, label %for.inc35, label %lor.lhs.false

lor.lhs.false:                                    ; preds = %for.body5
  %arrayidx.i32 = getelementptr inbounds ptr, ptr %5, i64 %indvars.iv48
  %9 = load ptr, ptr %arrayidx.i32, align 8
  %cmp12.not = icmp eq ptr %9, %8
  br i1 %cmp12.not, label %if.end, label %for.inc35

if.end:                                           ; preds = %lor.lhs.false
  %call13 = tail call noundef nonnull align 8 dereferenceable(8) ptr @_Z14verbose_streamv()
  %call14 = tail call noundef nonnull align 8 dereferenceable(8) ptr @_ZNSolsEj(ptr noundef nonnull align 8 dereferenceable(8) %call13, i32 noundef %4)
  %call15 = tail call noundef nonnull align 8 dereferenceable(8) ptr @_ZStlsISt11char_traitsIcEERSt13basic_ostreamIcT_ES5_PKc(ptr noundef nonnull align 8 dereferenceable(8) %call14, ptr noundef nonnull @.str.6)
  %10 = trunc i64 %indvars.iv45 to i32
  %call16 = tail call noundef nonnull align 8 dereferenceable(8) ptr @_ZNSolsEj(ptr noundef nonnull align 8 dereferenceable(8) %call15, i32 noundef %10)
  %call17 = tail call noundef nonnull align 8 dereferenceable(8) ptr @_ZStlsISt11char_traitsIcEERSt13basic_ostreamIcT_ES5_PKc(ptr noundef nonnull align 8 dereferenceable(8) %call16, ptr noundef nonnull @.str.6)
  %11 = load ptr, ptr %m_to_simplify, align 8
  %arrayidx.i38 = getelementptr inbounds ptr, ptr %11, i64 %indvars.iv48
  %12 = load ptr, ptr %arrayidx.i38, align 8
  %call19 = tail call noundef nonnull align 8 dereferenceable(8) ptr @_ZNSolsEPKv(ptr noundef nonnull align 8 dereferenceable(8) %call17, ptr noundef %12)
  %call20 = tail call noundef nonnull align 8 dereferenceable(8) ptr @_ZStlsISt11char_traitsIcEERSt13basic_ostreamIcT_ES5_PKc(ptr noundef nonnull align 8 dereferenceable(8) %call19, ptr noundef nonnull @.str.2)
  %13 = load ptr, ptr %m_to_simplify, align 8, !nonnull !23, !noundef !23
  %arrayidx.i.i = getelementptr inbounds i8, ptr %13, i64 -4
  %14 = load i32, ptr %arrayidx.i.i, align 4
  %15 = zext i32 %14 to i64
  %add.ptr.i = getelementptr inbounds ptr, ptr %13, i64 %15
  %cmp24.not43 = icmp eq i32 %14, 0
  br i1 %cmp24.not43, label %for.end, label %for.body25

for.body25:                                       ; preds = %if.end, %for.body25
  %__begin3.044 = phi ptr [ %incdec.ptr, %for.body25 ], [ %13, %if.end ]
  %16 = load ptr, ptr %__begin3.044, align 8
  %call26 = tail call noundef nonnull align 8 dereferenceable(8) ptr @_Z14verbose_streamv()
  %m_idx.i = getelementptr inbounds i8, ptr %16, i64 4
  %17 = load i32, ptr %m_idx.i, align 4
  %call28 = tail call noundef nonnull align 8 dereferenceable(8) ptr @_ZNSolsEj(ptr noundef nonnull align 8 dereferenceable(8) %call26, i32 noundef %17)
  %call29 = tail call noundef nonnull align 8 dereferenceable(8) ptr @_ZStlsISt11char_traitsIcEERSt13basic_ostreamIcT_ES5_PKc(ptr noundef nonnull align 8 dereferenceable(8) %call28, ptr noundef nonnull @.str.2)
  %incdec.ptr = getelementptr inbounds i8, ptr %__begin3.044, i64 8
  %cmp24.not = icmp eq ptr %incdec.ptr, %add.ptr.i
  br i1 %cmp24.not, label %for.end.loopexit, label %for.body25

for.end.loopexit:                                 ; preds = %for.body25
  %.pre51 = load ptr, ptr %m_to_simplify, align 8
  br label %for.end

for.end:                                          ; preds = %for.end.loopexit, %if.end
  %18 = phi ptr [ %.pre51, %for.end.loopexit ], [ %13, %if.end ]
  %arrayidx.i40 = getelementptr inbounds ptr, ptr %18, i64 %indvars.iv48
  %19 = load ptr, ptr %arrayidx.i40, align 8
  %arrayidx.i42 = getelementptr inbounds ptr, ptr %18, i64 %indvars.iv45
  %20 = load ptr, ptr %arrayidx.i42, align 8
  %cmp32.not = icmp eq ptr %19, %20
  br i1 %cmp32.not, label %if.then33, label %for.inc35

if.then33:                                        ; preds = %for.end
  tail call void @_Z26notify_assertion_violationPKciS0_(ptr noundef nonnull @.str.7, i32 noundef 174, ptr noundef nonnull @.str.8)
  tail call void @exit(i32 noundef 114) #24
  unreachable

for.inc35:                                        ; preds = %for.end, %for.body5, %lor.lhs.false
  %21 = phi ptr [ %18, %for.end ], [ %5, %for.body5 ], [ %5, %lor.lhs.false ]
  %indvars.iv.next46 = add nuw nsw i64 %indvars.iv45, 1
  br label %for.cond2, !llvm.loop !24

for.end39:                                        ; preds = %_ZNK6vectorIPN2dd6solver8equationELb0EjE4sizeEv.exit
  ret void
}